target datalayout = "e-m:e-p270:32:32-p271:32:32-p272:64:64-i64:64-i128:128-f80:128-n8:16:32:64-S128"
target triple = "x86_64-pc-linux-gnu"

; Function Attrs: nounwind uwtable
define dso_local i32 @uv_os_setpriority(i32 noundef %0, i32 noundef %1) #0 {
  %3 = alloca i32, align 4
  %4 = alloca i32, align 4
  %5 = alloca i32, align 4
  store i32 %0, ptr %4, align 4
  store i32 %1, ptr %5, align 4
  %6 = load i32, ptr %5, align 4
  %7 = icmp slt i32 %6, -20
  br i1 %7, label %11, label %8

8:                                                ; preds = %2
  %9 = load i32, ptr %5, align 4
  %10 = icmp sgt i32 %9, 19
  br i1 %10, label %11, label %12

11:                                               ; preds = %8, %2
  store i32 -22, ptr %3, align 4
  br label %22

12:                                               ; preds = %8
  %13 = load i32, ptr %4, align 4
  %14 = load i32, ptr %5, align 4
  %15 = call i32 @setpriority(i32 noundef 0, i32 noundef %13, i32 noundef %14) #11
  %16 = icmp ne i32 %15, 0
  br i1 %16, label %17, label %21

17:                                               ; preds = %12
  %18 = call ptr @__errno_location() #12
  %19 = load i32, ptr %18, align 4
  %20 = sub nsw i32 0, %19
  store i32 %20, ptr %3, align 4
  br label %22

21:                                               ; preds = %12
  store i32 0, ptr %3, align 4
  br label %22

22:                                               ; preds = %21, %17, %11
  %23 = load i32, ptr %3, align 4
  ret i32 %23
}