; Function Attrs: nounwind uwtable
define dso_local range(i32 -2147483647, -2147483648) i32 @uv_os_setpriority(i32 noundef %0, i32 noundef %1) local_unnamed_addr #0 {
  %3 = add i32 %1, -20
  %or.cond = icmp ult i32 %3, -40
  br i1 %or.cond, label %10, label %4

4:                                                ; preds = %2
  %5 = tail call i32 @setpriority(i32 noundef 0, i32 noundef %0, i32 noundef %1) #23
  %.not = icmp eq i32 %5, 0
  br i1 %.not, label %10, label %6

6:                                                ; preds = %4
  %7 = tail call ptr @__errno_location() #24
  %8 = load i32, ptr %7, align 4
  %9 = sub nsw i32 0, %8
  br label %10

10:                                               ; preds = %4, %2, %6
  %.0 = phi i32 [ %9, %6 ], [ -22, %2 ], [ 0, %4 ]
  ret i32 %.0
}